; Function Attrs: nounwind uwtable
define internal fastcc void @Dealloc(ptr noundef %0) unnamed_addr #0 {
  %2 = getelementptr i8, ptr %0, i64 8
  %.val = load ptr, ptr %2, align 8, !tbaa !69
  %3 = getelementptr inbounds nuw i8, ptr %0, i64 160
  %4 = load ptr, ptr %3, align 8, !tbaa !66
  tail call void @PyThread_free_lock(ptr noundef %4) #7
  %5 = getelementptr inbounds nuw i8, ptr %0, i64 128
  %6 = load ptr, ptr %5, align 8, !tbaa !64
  %.not.i7 = icmp eq ptr %6, null
  br i1 %.not.i7, label %Py_XDECREF.exit, label %7

7:                                                ; preds = %1
  %8 = load i32, ptr %6, align 8, !tbaa !14
  %.not.i.i = icmp sgt i32 %8, -1
  br i1 %.not.i.i, label %9, label %Py_XDECREF.exit

9:                                                ; preds = %7
  %10 = add nsw i32 %8, -1
  store i32 %10, ptr %6, align 8, !tbaa !14
  %11 = icmp eq i32 %10, 0
  br i1 %11, label %12, label %Py_XDECREF.exit

12:                                               ; preds = %9
  tail call void @_Py_Dealloc(ptr noundef nonnull %6) #7
  br label %Py_XDECREF.exit

Py_XDECREF.exit:                                  ; preds = %1, %7, %9, %12
  %13 = getelementptr inbounds nuw i8, ptr %0, i64 136
  %14 = load ptr, ptr %13, align 8, !tbaa !65
  %.not.i8 = icmp eq ptr %14, null
  br i1 %.not.i8, label %Py_XDECREF.exit10, label %15

15:                                               ; preds = %Py_XDECREF.exit
  %16 = load i32, ptr %14, align 8, !tbaa !14
  %.not.i.i9 = icmp sgt i32 %16, -1
  br i1 %.not.i.i9, label %17, label %Py_XDECREF.exit10

17:                                               ; preds = %15
  %18 = add nsw i32 %16, -1
  store i32 %18, ptr %14, align 8, !tbaa !14
  %19 = icmp eq i32 %18, 0
  br i1 %19, label %20, label %Py_XDECREF.exit10

20:                                               ; preds = %17
  tail call void @_Py_Dealloc(ptr noundef nonnull %14) #7
  br label %Py_XDECREF.exit10

Py_XDECREF.exit10:                                ; preds = %Py_XDECREF.exit, %15, %17, %20
  %21 = getelementptr inbounds nuw i8, ptr %0, i64 152
  %22 = load ptr, ptr %21, align 8, !tbaa !60
  %.not.i11 = icmp eq ptr %22, null
  br i1 %.not.i11, label %Py_XDECREF.exit13, label %23

23:                                               ; preds = %Py_XDECREF.exit10
  %24 = load i32, ptr %22, align 8, !tbaa !14
  %.not.i.i12 = icmp sgt i32 %24, -1
  br i1 %.not.i.i12, label %25, label %Py_XDECREF.exit13

25:                                               ; preds = %23
  %26 = add nsw i32 %24, -1
  store i32 %26, ptr %22, align 8, !tbaa !14
  %27 = icmp eq i32 %26, 0
  br i1 %27, label %28, label %Py_XDECREF.exit13

28:                                               ; preds = %25
  tail call void @_Py_Dealloc(ptr noundef nonnull %22) #7
  br label %Py_XDECREF.exit13

Py_XDECREF.exit13:                                ; preds = %Py_XDECREF.exit10, %23, %25, %28
  tail call void @PyObject_Free(ptr noundef nonnull %0) #7
  %29 = load i32, ptr %.val, align 8, !tbaa !14
  %.not.i = icmp sgt i32 %29, -1
  br i1 %.not.i, label %30, label %Py_DECREF.exit

30:                                               ; preds = %Py_XDECREF.exit13
  %31 = add nsw i32 %29, -1
  store i32 %31, ptr %.val, align 8, !tbaa !14
  %32 = icmp eq i32 %31, 0
  br i1 %32, label %33, label %Py_DECREF.exit

33:                                               ; preds = %30
  tail call void @_Py_Dealloc(ptr noundef nonnull %.val) #7
  br label %Py_DECREF.exit

Py_DECREF.exit:                                   ; preds = %Py_XDECREF.exit13, %30, %33
  ret void
}